; Function Attrs: mustprogress uwtable
define hidden noundef nonnull align 8 dereferenceable(8) ptr @_ZNK3sat9lookahead18display_candidatesERSo(ptr nocapture noundef nonnull readonly align 8 dereferenceable(1160) %this, ptr noundef nonnull returned align 8 dereferenceable(8) %out) local_unnamed_addr #3 align 2 {
entry:
  %m_candidates = getelementptr inbounds i8, ptr %this, i64 1096
  br label %for.cond

for.cond:                                         ; preds = %for.body, %entry
  %indvars.iv = phi i64 [ %indvars.iv.next, %for.body ], [ 0, %entry ]
  %0 = load ptr, ptr %m_candidates, align 8
  %cmp.i = icmp eq ptr %0, null
  br i1 %cmp.i, label %_ZNK6vectorIN3sat9lookahead9candidateELb0EjE4sizeEv.exit, label %if.end.i

if.end.i:                                         ; preds = %for.cond
  %arrayidx.i = getelementptr inbounds i8, ptr %0, i64 -4
  %1 = load i32, ptr %arrayidx.i, align 4
  br label %_ZNK6vectorIN3sat9lookahead9candidateELb0EjE4sizeEv.exit

_ZNK6vectorIN3sat9lookahead9candidateELb0EjE4sizeEv.exit: ; preds = %for.cond, %if.end.i
  %retval.0.i = phi i32 [ %1, %if.end.i ], [ 0, %for.cond ]
  %2 = zext i32 %retval.0.i to i64
  %cmp = icmp ult i64 %indvars.iv, %2
  br i1 %cmp, label %for.body, label %for.end

for.body:                                         ; preds = %_ZNK6vectorIN3sat9lookahead9candidateELb0EjE4sizeEv.exit
  %call2 = tail call noundef nonnull align 8 dereferenceable(8) ptr @_ZStlsISt11char_traitsIcEERSt13basic_ostreamIcT_ES5_PKc(ptr noundef nonnull align 8 dereferenceable(8) %out, ptr noundef nonnull @.str.9)
  %3 = load ptr, ptr %m_candidates, align 8
  %arrayidx.i5 = getelementptr inbounds %"struct.sat::lookahead::candidate", ptr %3, i64 %indvars.iv
  %4 = load i32, ptr %arrayidx.i5, align 8
  %call5 = tail call noundef nonnull align 8 dereferenceable(8) ptr @_ZNSolsEj(ptr noundef nonnull align 8 dereferenceable(8) %call2, i32 noundef %4)
  %call6 = tail call noundef nonnull align 8 dereferenceable(8) ptr @_ZStlsISt11char_traitsIcEERSt13basic_ostreamIcT_ES5_PKc(ptr noundef nonnull align 8 dereferenceable(8) %call5, ptr noundef nonnull @.str.10)
  %5 = load ptr, ptr %m_candidates, align 8
  %m_rating = getelementptr inbounds %"struct.sat::lookahead::candidate", ptr %5, i64 %indvars.iv, i32 1
  %6 = load double, ptr %m_rating, align 8
  %call9 = tail call noundef nonnull align 8 dereferenceable(8) ptr @_ZNSolsEd(ptr noundef nonnull align 8 dereferenceable(8) %call6, double noundef %6)
  %call10 = tail call noundef nonnull align 8 dereferenceable(8) ptr @_ZStlsISt11char_traitsIcEERSt13basic_ostreamIcT_ES5_PKc(ptr noundef nonnull align 8 dereferenceable(8) %call9, ptr noundef nonnull @.str.3)
  %indvars.iv.next = add nuw nsw i64 %indvars.iv, 1
  br label %for.cond, !llvm.loop !31

for.end:                                          ; preds = %_ZNK6vectorIN3sat9lookahead9candidateELb0EjE4sizeEv.exit
  ret ptr %out
}